target datalayout = "e-m:e-p270:32:32-p271:32:32-p272:64:64-i64:64-i128:128-f80:128-n8:16:32:64-S128"
target triple = "x86_64-unknown-linux-gnu"

; Function Attrs: mustprogress nounwind uwtable
define linkonce_odr hidden noundef i64 @_ZN6hermes2vm14AlignedStorage4sizeEv() #0 comdat align 2 {
entry:
  ret i64 4194304
}

; Function Attrs: mustprogress nounwind uwtable
define internal void @_ZN6hermes2vm12_GLOBAL__N_125VMAllocateStorageProvider17deleteStorageImplEPv(ptr noundef nonnull align 8 dereferenceable(32) %this, ptr noundef %storage) unnamed_addr #0 align 2 {
entry:
  %this.addr = alloca ptr, align 8
  %storage.addr = alloca ptr, align 8
  store ptr %this, ptr %this.addr, align 8
  store ptr %storage, ptr %storage.addr, align 8
  %0 = load ptr, ptr %storage.addr, align 8
  %tobool = icmp ne ptr %0, null
  br i1 %tobool, label %if.end, label %if.then

if.then:                                          ; preds = %entry
  br label %return

if.end:                                           ; preds = %entry
  %1 = load ptr, ptr %storage.addr, align 8
  %call = call noundef i64 @_ZN6hermes2vm14AlignedStorage4sizeEv()
  call void @_ZN6hermes8oscompat15vm_free_alignedEPvm(ptr noundef %1, i64 noundef %call)
  br label %return

return:                                           ; preds = %if.end, %if.then
  ret void
}