; Function Attrs: mustprogress nounwind uwtable
define internal void @_ZN6hermes2vm12_GLOBAL__N_125VMAllocateStorageProvider17deleteStorageImplEPv(ptr nocapture nonnull readnone align 8 %this, ptr noundef %storage) unnamed_addr #3 align 2 {
entry:
  %tobool.not = icmp eq ptr %storage, null
  br i1 %tobool.not, label %return, label %if.end

if.end:                                           ; preds = %entry
  tail call void @_ZN6hermes8oscompat15vm_free_alignedEPvm(ptr noundef nonnull %storage, i64 noundef 4194304) #18
  br label %return

return:                                           ; preds = %entry, %if.end
  ret void
}